(dp0
S'twitter'
p1
(dp2
S'CONSUMER_SECRET'
p3
S'N9ix9c3nuebmHOoT85W6g04lZBBbRz5qd0iwaOYZY'
p4
sS'OAUTH_TOKEN'
p5
S'75535677-3MUzZhlEkEnXvildJ9nbYAiUb1jZlcpzLvFVQOnBO'
p6
sS'CONSUMER_KEY'
p7
S'XqEpWilg4foCJzpDhU6aZw'
p8
sS'OAUTH_TOKEN_SECRET'
p9
S'Qvr0lqsvkGsDkKw6pDQ0jruDp9FXm2InelLp44wjqno'
p10
ss.